target datalayout = "e-m:e-p270:32:32-p271:32:32-p272:64:64-i64:64-i128:128-f80:128-n8:16:32:64-S128"
target triple = "x86_64-pc-linux-gnu"

%struct.cli_ctx_tag = type { ptr, ptr, ptr, ptr, ptr, ptr, ptr, i64, ptr, i32, i32, ptr, i32, i32, ptr, [16 x i8], ptr, ptr, ptr, ptr, ptr, ptr, %struct.timeval, i8, i8 }
%struct.timeval = type { i64, i64 }
%struct.cl_engine = type { i32, i32, i32, [2 x i32], i32, i32, i32, ptr, i32, i64, i32, i32, i64, i64, i32, i32, i32, i32, ptr, ptr, ptr, ptr, ptr, ptr, ptr, ptr, ptr, ptr, ptr, ptr, ptr, ptr, ptr, ptr, ptr, ptr, ptr, i64, ptr, %struct.crtmgr, ptr, ptr, ptr, ptr, ptr, ptr, ptr, ptr, ptr, ptr, ptr, ptr, ptr, ptr, ptr, ptr, ptr, %struct.cli_all_bc, [7 x ptr], [7 x i32], i32, i32, i32, i32, i64, i64, i64, i64, i64, ptr, ptr, ptr, ptr, ptr, ptr, ptr, ptr, ptr, i32, i32, i32, i64, i64, i64, ptr }
%struct.crtmgr = type { ptr, i32 }
%struct.cli_all_bc = type { ptr, i32, ptr, %struct.cli_environment, i32 }
%struct.cli_environment = type { i32, i32, i32, i32, i32, i32, i32, [65 x i8], [65 x i8], [65 x i8], [65 x i8], [65 x i8], [65 x i8], [65 x i8], i8, i8, i8, i8, i8, i8, i8, i8, i8 }
%struct.zip_requests = type { [10 x ptr], [10 x i64], i32, i32, i32, i32 }
%struct.cl_fmap = type { ptr, ptr, ptr, i64, i64, i64, i64, i8, i8, i8, i64, i64, i64, i64, ptr, ptr, ptr, ptr, ptr, ptr, ptr, i8, [16 x i8], i8, [20 x i8], i8, [32 x i8], ptr, ptr }

@.str.3 = private unnamed_addr constant [42 x i8] c"cli_unzip: Files limit reached (max: %u)\0A\00", align 1
@.str.4 = private unnamed_addr constant [36 x i8] c"Heuristics.Limits.Exceeded.MaxFiles\00", align 1
@.str.24 = private unnamed_addr constant [17 x i8] c"in unzip_search\0A\00", align 1
@.str.25 = private unnamed_addr constant [28 x i8] c"unzip_search: file too big\0A\00", align 1
@.str.26 = private unnamed_addr constant [30 x i8] c"unzip_search: file too short\0A\00", align 1
@.str.27 = private unnamed_addr constant [52 x i8] c"unzip_search: central directory header offset: @%x\0A\00", align 1
@.str.28 = private unnamed_addr constant [47 x i8] c"unzip_search: cannot locate central directory\0A\00", align 1

; Function Attrs: nounwind uwtable
define internal ptr @fmap_need_off_once(ptr noundef %0, i64 noundef %1, i64 noundef %2) #0 {
  %4 = alloca ptr, align 8
  %5 = alloca i64, align 8
  %6 = alloca i64, align 8
  store ptr %0, ptr %4, align 8
  store i64 %1, ptr %5, align 8
  store i64 %2, ptr %6, align 8
  %7 = load ptr, ptr %4, align 8
  %8 = getelementptr inbounds %struct.cl_fmap, ptr %7, i32 0, i32 15
  %9 = load ptr, ptr %8, align 8
  %10 = load ptr, ptr %4, align 8
  %11 = load i64, ptr %5, align 8
  %12 = load i64, ptr %6, align 8
  %13 = call ptr %9(ptr noundef %10, i64 noundef %11, i64 noundef %12, i32 noundef 0)
  ret ptr %13
}

; Function Attrs: nounwind uwtable
define i32 @unzip_search(ptr noundef %0, ptr noundef %1, ptr noundef %2) #0 {
  %4 = alloca i32, align 4
  %5 = alloca ptr, align 8
  %6 = alloca ptr, align 8
  %7 = alloca ptr, align 8
  %8 = alloca i32, align 4
  %9 = alloca ptr, align 8
  %10 = alloca i64, align 8
  %11 = alloca i32, align 4
  %12 = alloca ptr, align 8
  %13 = alloca i32, align 4
  %14 = alloca i32, align 4
  %15 = alloca i32, align 4
  store ptr %0, ptr %5, align 8
  store ptr %1, ptr %6, align 8
  store ptr %2, ptr %7, align 8
  store i32 0, ptr %8, align 4
  %16 = load ptr, ptr %6, align 8
  store ptr %16, ptr %9, align 8
  store i32 0, ptr %11, align 4
  store i32 0, ptr %13, align 4
  store i32 0, ptr %14, align 4
  call void (ptr, ...) @cli_dbgmsg(ptr noundef @.str.24)
  %17 = load ptr, ptr %5, align 8
  %18 = icmp ne ptr %17, null
  br i1 %18, label %22, label %19

19:                                               ; preds = %3
  %20 = load ptr, ptr %6, align 8
  %21 = icmp ne ptr %20, null
  br i1 %21, label %22, label %25

22:                                               ; preds = %19, %3
  %23 = load ptr, ptr %7, align 8
  %24 = icmp ne ptr %23, null
  br i1 %24, label %26, label %25

25:                                               ; preds = %22, %19
  store i32 2, ptr %4, align 4
  br label %162

26:                                               ; preds = %22
  %27 = load ptr, ptr %5, align 8
  %28 = icmp ne ptr %27, null
  br i1 %28, label %29, label %36

29:                                               ; preds = %26
  %30 = load ptr, ptr %6, align 8
  %31 = icmp ne ptr %30, null
  br i1 %31, label %36, label %32

32:                                               ; preds = %29
  %33 = load ptr, ptr %5, align 8
  %34 = getelementptr inbounds %struct.cli_ctx_tag, ptr %33, i32 0, i32 14
  %35 = load ptr, ptr %34, align 8
  store ptr %35, ptr %9, align 8
  br label %36

36:                                               ; preds = %32, %29, %26
  %37 = load ptr, ptr %9, align 8
  %38 = getelementptr inbounds %struct.cl_fmap, ptr %37, i32 0, i32 13
  %39 = load i64, ptr %38, align 8
  store i64 %39, ptr %10, align 8
  %40 = load i64, ptr %10, align 8
  %41 = load ptr, ptr %9, align 8
  %42 = getelementptr inbounds %struct.cl_fmap, ptr %41, i32 0, i32 13
  %43 = load i64, ptr %42, align 8
  %44 = icmp ne i64 %40, %43
  br i1 %44, label %45, label %46

45:                                               ; preds = %36
  call void (ptr, ...) @cli_dbgmsg(ptr noundef @.str.25)
  store i32 0, ptr %4, align 4
  br label %162

46:                                               ; preds = %36
  %47 = load i64, ptr %10, align 8
  %48 = icmp ult i64 %47, 46
  br i1 %48, label %49, label %50

49:                                               ; preds = %46
  call void (ptr, ...) @cli_dbgmsg(ptr noundef @.str.26)
  store i32 0, ptr %4, align 4
  br label %162

50:                                               ; preds = %46
  %51 = load i64, ptr %10, align 8
  %52 = sub i64 %51, 22
  %53 = trunc i64 %52 to i32
  store i32 %53, ptr %11, align 4
  br label %54

54:                                               ; preds = %92, %50
  %55 = load i32, ptr %11, align 4
  %56 = icmp ugt i32 %55, 0
  br i1 %56, label %57, label %95

57:                                               ; preds = %54
  %58 = load ptr, ptr %9, align 8
  %59 = load i32, ptr %11, align 4
  %60 = zext i32 %59 to i64
  %61 = call ptr @fmap_need_off_once(ptr noundef %58, i64 noundef %60, i64 noundef 20)
  store ptr %61, ptr %12, align 8
  %62 = icmp ne ptr %61, null
  br i1 %62, label %64, label %63

63:                                               ; preds = %57
  br label %92

64:                                               ; preds = %57
  %65 = load ptr, ptr %12, align 8
  %66 = load i32, ptr %65, align 1
  %67 = icmp eq i32 %66, 101010256
  br i1 %67, label %68, label %91

68:                                               ; preds = %64
  %69 = load ptr, ptr %12, align 8
  %70 = getelementptr inbounds i8, ptr %69, i64 16
  %71 = load i32, ptr %70, align 1
  store i32 %71, ptr %15, align 4
  %72 = load i64, ptr %10, align 8
  %73 = icmp ugt i64 %72, 0
  br i1 %73, label %74, label %88

74:                                               ; preds = %68
  %75 = load i64, ptr %10, align 8
  %76 = icmp ule i64 46, %75
  br i1 %76, label %77, label %88

77:                                               ; preds = %74
  %78 = load i32, ptr %15, align 4
  %79 = zext i32 %78 to i64
  %80 = add i64 %79, 46
  %81 = load i64, ptr %10, align 8
  %82 = icmp ule i64 %80, %81
  br i1 %82, label %83, label %88

83:                                               ; preds = %77
  %84 = load i32, ptr %15, align 4
  %85 = zext i32 %84 to i64
  %86 = load i64, ptr %10, align 8
  %87 = icmp ult i64 %85, %86
  br i1 %87, label %89, label %88

88:                                               ; preds = %83, %77, %74, %68
  br label %92

89:                                               ; preds = %83
  %90 = load i32, ptr %15, align 4
  store i32 %90, ptr %11, align 4
  br label %95

91:                                               ; preds = %64
  br label %92

92:                                               ; preds = %91, %88, %63
  %93 = load i32, ptr %11, align 4
  %94 = add i32 %93, -1
  store i32 %94, ptr %11, align 4
  br label %54

95:                                               ; preds = %89, %54
  %96 = load i32, ptr %11, align 4
  %97 = icmp ne i32 %96, 0
  br i1 %97, label %98, label %159

98:                                               ; preds = %95
  %99 = load i32, ptr %11, align 4
  call void (ptr, ...) @cli_dbgmsg(ptr noundef @.str.27, i32 noundef %99)
  br label %100

100:                                              ; preds = %157, %98
  %101 = load i32, ptr %13, align 4
  %102 = icmp eq i32 %101, 0
  br i1 %102, label %103, label %114

103:                                              ; preds = %100
  %104 = load ptr, ptr %9, align 8
  %105 = load i32, ptr %11, align 4
  %106 = load i64, ptr %10, align 8
  %107 = trunc i64 %106 to i32
  %108 = load i32, ptr %8, align 4
  %109 = add i32 %108, 1
  %110 = load ptr, ptr %5, align 8
  %111 = load ptr, ptr %7, align 8
  %112 = call i32 @parse_central_directory_file_header(ptr noundef %104, i32 noundef %105, i32 noundef %107, ptr noundef null, i32 noundef %109, ptr noundef %13, ptr noundef %110, ptr noundef null, ptr noundef %111, ptr noundef null)
  store i32 %112, ptr %11, align 4
  %113 = icmp ne i32 %112, 0
  br label %114

114:                                              ; preds = %103, %100
  %115 = phi i1 [ false, %100 ], [ %113, %103 ]
  br i1 %115, label %116, label %158

116:                                              ; preds = %114
  %117 = load ptr, ptr %7, align 8
  %118 = getelementptr inbounds %struct.zip_requests, ptr %117, i32 0, i32 5
  %119 = load i32, ptr %118, align 4
  %120 = icmp ne i32 %119, 0
  br i1 %120, label %121, label %122

121:                                              ; preds = %116
  store i32 1, ptr %13, align 4
  br label %122

122:                                              ; preds = %121, %116
  %123 = load i32, ptr %8, align 4
  %124 = add i32 %123, 1
  store i32 %124, ptr %8, align 4
  %125 = load ptr, ptr %5, align 8
  %126 = icmp ne ptr %125, null
  br i1 %126, label %127, label %149

127:                                              ; preds = %122
  %128 = load ptr, ptr %5, align 8
  %129 = getelementptr inbounds %struct.cli_ctx_tag, ptr %128, i32 0, i32 6
  %130 = load ptr, ptr %129, align 8
  %131 = getelementptr inbounds %struct.cl_engine, ptr %130, i32 0, i32 15
  %132 = load i32, ptr %131, align 4
  %133 = icmp ne i32 %132, 0
  br i1 %133, label %134, label %149

134:                                              ; preds = %127
  %135 = load i32, ptr %8, align 4
  %136 = load ptr, ptr %5, align 8
  %137 = getelementptr inbounds %struct.cli_ctx_tag, ptr %136, i32 0, i32 6
  %138 = load ptr, ptr %137, align 8
  %139 = getelementptr inbounds %struct.cl_engine, ptr %138, i32 0, i32 15
  %140 = load i32, ptr %139, align 4
  %141 = icmp uge i32 %135, %140
  br i1 %141, label %142, label %149

142:                                              ; preds = %134
  %143 = load ptr, ptr %5, align 8
  %144 = getelementptr inbounds %struct.cli_ctx_tag, ptr %143, i32 0, i32 6
  %145 = load ptr, ptr %144, align 8
  %146 = getelementptr inbounds %struct.cl_engine, ptr %145, i32 0, i32 15
  %147 = load i32, ptr %146, align 4
  call void (ptr, ...) @cli_dbgmsg(ptr noundef @.str.3, i32 noundef %147)
  %148 = load ptr, ptr %5, align 8
  call void @cli_append_potentially_unwanted_if_heur_exceedsmax(ptr noundef %148, ptr noundef @.str.4)
  store i32 25, ptr %13, align 4
  br label %149

149:                                              ; preds = %142, %134, %127, %122
  %150 = load ptr, ptr %5, align 8
  %151 = icmp ne ptr %150, null
  br i1 %151, label %152, label %157

152:                                              ; preds = %149
  %153 = load ptr, ptr %5, align 8
  %154 = call i32 @cli_json_timeout_cycle_check(ptr noundef %153, ptr noundef %14)
  %155 = icmp ne i32 %154, 0
  br i1 %155, label %156, label %157

156:                                              ; preds = %152
  store i32 21, ptr %13, align 4
  br label %157

157:                                              ; preds = %156, %152, %149
  br label %100

158:                                              ; preds = %114
  br label %160

159:                                              ; preds = %95
  call void (ptr, ...) @cli_dbgmsg(ptr noundef @.str.28)
  br label %160

160:                                              ; preds = %159, %158
  %161 = load i32, ptr %13, align 4
  store i32 %161, ptr %4, align 4
  br label %162

162:                                              ; preds = %160, %49, %45, %25
  %163 = load i32, ptr %4, align 4
  ret i32 %163
}