; Function Attrs: nounwind uwtable
define i32 @unzip_search(ptr noundef %0, ptr noundef %1, ptr noundef %2) local_unnamed_addr #0 {
  %4 = alloca i32, align 4
  %5 = alloca i32, align 4
  store i32 0, ptr %4, align 4
  store i32 0, ptr %5, align 4
  tail call void (ptr, ...) @cli_dbgmsg(ptr noundef nonnull @.str.24) #12
  %6 = icmp ne ptr %0, null
  %7 = icmp ne ptr %1, null
  %or.cond = or i1 %6, %7
  %8 = icmp ne ptr %2, null
  %or.cond3 = and i1 %or.cond, %8
  br i1 %or.cond3, label %9, label %60

9:                                                ; preds = %3
  %10 = icmp eq ptr %0, null
  %or.cond5 = or i1 %10, %7
  br i1 %or.cond5, label %14, label %11

11:                                               ; preds = %9
  %12 = getelementptr inbounds i8, ptr %0, i64 96
  %13 = load ptr, ptr %12, align 8
  br label %14

14:                                               ; preds = %11, %9
  %.052 = phi ptr [ %1, %9 ], [ %13, %11 ]
  %15 = getelementptr inbounds i8, ptr %.052, i64 88
  %16 = load i64, ptr %15, align 8
  %17 = icmp ult i64 %16, 46
  br i1 %17, label %18, label %19

18:                                               ; preds = %14
  tail call void (ptr, ...) @cli_dbgmsg(ptr noundef nonnull @.str.26) #12
  br label %60

19:                                               ; preds = %14
  %20 = trunc i64 %16 to i32
  %21 = add i32 %20, -22
  %.not75 = icmp eq i32 %21, 0
  br i1 %.not75, label %.thread, label %.lr.ph

.lr.ph:                                           ; preds = %19
  %22 = getelementptr inbounds i8, ptr %.052, i64 104
  %23 = zext i32 %21 to i64
  br label %24

24:                                               ; preds = %.lr.ph, %35
  %indvars.iv = phi i64 [ %23, %.lr.ph ], [ %indvars.iv.next, %35 ]
  %25 = load ptr, ptr %22, align 8
  %26 = tail call ptr %25(ptr noundef nonnull %.052, i64 noundef %indvars.iv, i64 noundef 20, i32 noundef 0) #12
  %.not61 = icmp eq ptr %26, null
  br i1 %.not61, label %35, label %27

27:                                               ; preds = %24
  %28 = load i32, ptr %26, align 1
  %29 = icmp eq i32 %28, 101010256
  br i1 %29, label %30, label %35

30:                                               ; preds = %27
  %31 = getelementptr inbounds i8, ptr %26, i64 16
  %32 = load i32, ptr %31, align 1
  %33 = zext i32 %32 to i64
  %34 = add nuw nsw i64 %33, 46
  %.not62.not = icmp ugt i64 %34, %16
  br i1 %.not62.not, label %35, label %37

35:                                               ; preds = %27, %30, %24
  %indvars.iv.next = add nsw i64 %indvars.iv, -1
  %36 = and i64 %indvars.iv.next, 4294967295
  %.not = icmp eq i64 %36, 0
  br i1 %.not, label %.thread, label %24

37:                                               ; preds = %30
  %.not63 = icmp eq i32 %32, 0
  br i1 %.not63, label %.thread, label %.lr.ph79

.lr.ph79:                                         ; preds = %37
  tail call void (ptr, ...) @cli_dbgmsg(ptr noundef nonnull @.str.27, i32 noundef %32) #12
  %38 = getelementptr inbounds i8, ptr %2, i64 172
  %39 = getelementptr inbounds i8, ptr %0, i64 48
  br i1 %6, label %.lr.ph79.split.us, label %.lr.ph79.split

.lr.ph79.split.us:                                ; preds = %.lr.ph79, %.critedge72.us
  %.05078.us = phi i32 [ %40, %.critedge72.us ], [ 0, %.lr.ph79 ]
  %.277.us = phi i32 [ %41, %.critedge72.us ], [ %32, %.lr.ph79 ]
  %40 = add i32 %.05078.us, 1
  %41 = call fastcc i32 @parse_central_directory_file_header(ptr noundef %.052, i32 noundef %.277.us, i32 noundef %20, i32 noundef %40, ptr noundef nonnull %4, ptr noundef nonnull %0, ptr noundef nonnull %2, ptr noundef null)
  %.not64.us = icmp eq i32 %41, 0
  br i1 %.not64.us, label %.critedge, label %42

42:                                               ; preds = %.lr.ph79.split.us
  %43 = load i32, ptr %38, align 4
  %.not65.us = icmp eq i32 %43, 0
  br i1 %.not65.us, label %45, label %44

44:                                               ; preds = %42
  store i32 1, ptr %4, align 4
  br label %45

45:                                               ; preds = %44, %42
  %46 = load ptr, ptr %39, align 8
  %47 = getelementptr inbounds i8, ptr %46, i64 84
  %48 = load i32, ptr %47, align 4
  %49 = add i32 %48, -1
  %or.cond70.not.us = icmp ult i32 %49, %40
  br i1 %or.cond70.not.us, label %50, label %51

50:                                               ; preds = %45
  call void (ptr, ...) @cli_dbgmsg(ptr noundef nonnull @.str.3, i32 noundef %48) #12
  call void @cli_append_potentially_unwanted_if_heur_exceedsmax(ptr noundef nonnull %0, ptr noundef nonnull @.str.4) #12
  store i32 25, ptr %4, align 4
  br label %51

51:                                               ; preds = %50, %45
  %52 = call i32 @cli_json_timeout_cycle_check(ptr noundef nonnull %0, ptr noundef nonnull %5) #12
  %.not68.us = icmp eq i32 %52, 0
  br i1 %.not68.us, label %.critedge72.us, label %.critedge72.us.thread

.critedge72.us.thread:                            ; preds = %51
  store i32 21, ptr %4, align 4
  br label %.critedge

.critedge72.us:                                   ; preds = %51
  %.pre83 = load i32, ptr %4, align 4
  %53 = icmp eq i32 %.pre83, 0
  br i1 %53, label %.lr.ph79.split.us, label %.critedge

.lr.ph79.split:                                   ; preds = %.lr.ph79, %.critedge72
  %.05078 = phi i32 [ %54, %.critedge72 ], [ 0, %.lr.ph79 ]
  %.277 = phi i32 [ %55, %.critedge72 ], [ %32, %.lr.ph79 ]
  %54 = add i32 %.05078, 1
  %55 = call fastcc i32 @parse_central_directory_file_header(ptr noundef %.052, i32 noundef %.277, i32 noundef %20, i32 noundef %54, ptr noundef nonnull %4, ptr noundef null, ptr noundef nonnull %2, ptr noundef null)
  %.not64 = icmp eq i32 %55, 0
  br i1 %.not64, label %.critedge, label %56

56:                                               ; preds = %.lr.ph79.split
  %57 = load i32, ptr %38, align 4
  %.not65 = icmp eq i32 %57, 0
  br i1 %.not65, label %.critedge72, label %.critedge72.thread

.critedge72.thread:                               ; preds = %56
  store i32 1, ptr %4, align 4
  br label %.critedge

.critedge72:                                      ; preds = %56
  %.pre = load i32, ptr %4, align 4
  %58 = icmp eq i32 %.pre, 0
  br i1 %58, label %.lr.ph79.split, label %.critedge

.thread:                                          ; preds = %35, %19, %37
  tail call void (ptr, ...) @cli_dbgmsg(ptr noundef nonnull @.str.28) #12
  br label %.critedge

.critedge:                                        ; preds = %.critedge72, %.lr.ph79.split, %.critedge72.us, %.lr.ph79.split.us, %.critedge72.thread, %.critedge72.us.thread, %.thread
  %59 = load i32, ptr %4, align 4
  br label %60

60:                                               ; preds = %3, %.critedge, %18
  %.0 = phi i32 [ 0, %18 ], [ %59, %.critedge ], [ 2, %3 ]
  ret i32 %.0
}